target datalayout = "e-m:e-p270:32:32-p271:32:32-p272:64:64-i64:64-i128:128-f80:128-n8:16:32:64-S128"
target triple = "x86_64-pc-linux-gnu"

%struct.prio_queue = type { ptr, i64, ptr, i64, i64, ptr }
%struct.prio_queue_entry = type { i64, ptr }

@.str = private unnamed_addr constant [13 x i8] c"prio-queue.c\00", align 1
@.str.1 = private unnamed_addr constant [39 x i8] c"prio_queue_reverse() on non-LIFO queue\00", align 1

; Function Attrs: inlinehint nounwind uwtable
define internal void @swap(ptr noundef %0, i64 noundef %1, i64 noundef %2) #3 {
  %4 = alloca ptr, align 8
  %5 = alloca i64, align 8
  %6 = alloca i64, align 8
  %7 = alloca ptr, align 8
  %8 = alloca ptr, align 8
  %9 = alloca [16 x i8], align 16
  store ptr %0, ptr %4, align 8, !tbaa !4
  store i64 %1, ptr %5, align 8, !tbaa !14
  store i64 %2, ptr %6, align 8, !tbaa !14
  br label %10

10:                                               ; preds = %3
  call void @llvm.lifetime.start.p0(i64 8, ptr %7) #7
  %11 = load ptr, ptr %4, align 8, !tbaa !4
  %12 = getelementptr inbounds nuw %struct.prio_queue, ptr %11, i32 0, i32 5
  %13 = load ptr, ptr %12, align 8, !tbaa !17
  %14 = load i64, ptr %5, align 8, !tbaa !14
  %15 = getelementptr inbounds nuw %struct.prio_queue_entry, ptr %13, i64 %14
  store ptr %15, ptr %7, align 8, !tbaa !18
  call void @llvm.lifetime.start.p0(i64 8, ptr %8) #7
  %16 = load ptr, ptr %4, align 8, !tbaa !4
  %17 = getelementptr inbounds nuw %struct.prio_queue, ptr %16, i32 0, i32 5
  %18 = load ptr, ptr %17, align 8, !tbaa !17
  %19 = load i64, ptr %6, align 8, !tbaa !14
  %20 = getelementptr inbounds nuw %struct.prio_queue_entry, ptr %18, i64 %19
  store ptr %20, ptr %8, align 8, !tbaa !18
  call void @llvm.lifetime.start.p0(i64 16, ptr %9) #7
  %21 = getelementptr inbounds [16 x i8], ptr %9, i64 0, i64 0
  %22 = load ptr, ptr %7, align 8, !tbaa !18
  call void @llvm.memcpy.p0.p0.i64(ptr align 16 %21, ptr align 1 %22, i64 16, i1 false)
  %23 = load ptr, ptr %7, align 8, !tbaa !18
  %24 = load ptr, ptr %8, align 8, !tbaa !18
  call void @llvm.memcpy.p0.p0.i64(ptr align 1 %23, ptr align 1 %24, i64 16, i1 false)
  %25 = load ptr, ptr %8, align 8, !tbaa !18
  %26 = getelementptr inbounds [16 x i8], ptr %9, i64 0, i64 0
  call void @llvm.memcpy.p0.p0.i64(ptr align 1 %25, ptr align 16 %26, i64 16, i1 false)
  call void @llvm.lifetime.end.p0(i64 16, ptr %9) #7
  call void @llvm.lifetime.end.p0(i64 8, ptr %8) #7
  call void @llvm.lifetime.end.p0(i64 8, ptr %7) #7
  br label %27

27:                                               ; preds = %10
  ret void
}

; Function Attrs: nounwind uwtable
define dso_local void @prio_queue_reverse(ptr noundef %0) #0 {
  %2 = alloca ptr, align 8
  %3 = alloca i64, align 8
  %4 = alloca i64, align 8
  %5 = alloca i32, align 4
  store ptr %0, ptr %2, align 8, !tbaa !4
  call void @llvm.lifetime.start.p0(i64 8, ptr %3) #7
  call void @llvm.lifetime.start.p0(i64 8, ptr %4) #7
  %6 = load ptr, ptr %2, align 8, !tbaa !4
  %7 = getelementptr inbounds nuw %struct.prio_queue, ptr %6, i32 0, i32 0
  %8 = load ptr, ptr %7, align 8, !tbaa !9
  %9 = icmp ne ptr %8, null
  br i1 %9, label %10, label %11

10:                                               ; preds = %1
  call void (ptr, i32, ptr, ...) @BUG_fl(ptr noundef @.str, i32 noundef 24, ptr noundef @.str.1) #8
  unreachable

11:                                               ; preds = %1
  %12 = load ptr, ptr %2, align 8, !tbaa !4
  %13 = getelementptr inbounds nuw %struct.prio_queue, ptr %12, i32 0, i32 4
  %14 = load i64, ptr %13, align 8, !tbaa !13
  %15 = icmp ne i64 %14, 0
  br i1 %15, label %17, label %16

16:                                               ; preds = %11
  store i32 1, ptr %5, align 4
  br label %35

17:                                               ; preds = %11
  store i64 0, ptr %3, align 8, !tbaa !14
  br label %18

18:                                               ; preds = %31, %17
  %19 = load i64, ptr %3, align 8, !tbaa !14
  %20 = load ptr, ptr %2, align 8, !tbaa !4
  %21 = getelementptr inbounds nuw %struct.prio_queue, ptr %20, i32 0, i32 4
  %22 = load i64, ptr %21, align 8, !tbaa !13
  %23 = sub i64 %22, 1
  %24 = load i64, ptr %3, align 8, !tbaa !14
  %25 = sub i64 %23, %24
  store i64 %25, ptr %4, align 8, !tbaa !14
  %26 = icmp ult i64 %19, %25
  br i1 %26, label %27, label %34

27:                                               ; preds = %18
  %28 = load ptr, ptr %2, align 8, !tbaa !4
  %29 = load i64, ptr %3, align 8, !tbaa !14
  %30 = load i64, ptr %4, align 8, !tbaa !14
  call void @swap(ptr noundef %28, i64 noundef %29, i64 noundef %30)
  br label %31

31:                                               ; preds = %27
  %32 = load i64, ptr %3, align 8, !tbaa !14
  %33 = add i64 %32, 1
  store i64 %33, ptr %3, align 8, !tbaa !14
  br label %18, !llvm.loop !15

34:                                               ; preds = %18
  store i32 0, ptr %5, align 4
  br label %35

35:                                               ; preds = %34, %16
  call void @llvm.lifetime.end.p0(i64 8, ptr %4) #7
  call void @llvm.lifetime.end.p0(i64 8, ptr %3) #7
  %36 = load i32, ptr %5, align 4
  switch i32 %36, label %38 [
    i32 0, label %37
    i32 1, label %37
  ]

37:                                               ; preds = %35, %35
  ret void

38:                                               ; preds = %35
  unreachable
}