; Function Attrs: nounwind uwtable
define dso_local void @prio_queue_reverse(ptr noundef readonly captures(none) %0) local_unnamed_addr #0 {
  %2 = alloca [16 x i8], align 16
  %3 = load ptr, ptr %0, align 8, !tbaa !4
  %.not = icmp eq ptr %3, null
  br i1 %.not, label %5, label %4

4:                                                ; preds = %1
  tail call void (ptr, i32, ptr, ...) @BUG_fl(ptr noundef nonnull @.str, i32 noundef 24, ptr noundef nonnull @.str.1) #10
  unreachable

5:                                                ; preds = %1
  %6 = getelementptr inbounds nuw i8, ptr %0, i64 32
  %7 = load i64, ptr %6, align 8, !tbaa !11
  %.not9 = icmp eq i64 %7, 0
  br i1 %.not9, label %.loopexit, label %.preheader

.preheader:                                       ; preds = %5
  %8 = add i64 %7, -1
  %.not11 = icmp eq i64 %8, 0
  br i1 %.not11, label %.loopexit, label %.lr.ph

.lr.ph:                                           ; preds = %.preheader
  %9 = getelementptr i8, ptr %0, i64 40
  br label %10

10:                                               ; preds = %.lr.ph, %10
  %11 = phi i64 [ %8, %.lr.ph ], [ %16, %10 ]
  %.010 = phi i64 [ 0, %.lr.ph ], [ %14, %10 ]
  %.val = load ptr, ptr %9, align 8, !tbaa !12
  %12 = getelementptr inbounds nuw %struct.prio_queue_entry, ptr %.val, i64 %.010
  %13 = getelementptr inbounds nuw %struct.prio_queue_entry, ptr %.val, i64 %11
  call void @llvm.lifetime.start.p0(i64 16, ptr nonnull %2)
  call void @llvm.memcpy.p0.p0.i64(ptr noundef nonnull align 16 dereferenceable(16) %2, ptr noundef nonnull align 1 dereferenceable(16) %12, i64 16, i1 false)
  tail call void @llvm.memcpy.p0.p0.i64(ptr noundef nonnull align 1 dereferenceable(16) %12, ptr noundef nonnull align 1 dereferenceable(16) %13, i64 16, i1 false)
  call void @llvm.memcpy.p0.p0.i64(ptr noundef nonnull align 1 dereferenceable(16) %13, ptr noundef nonnull align 16 dereferenceable(16) %2, i64 16, i1 false)
  call void @llvm.lifetime.end.p0(i64 16, ptr nonnull %2)
  %14 = add nuw i64 %.010, 1
  %15 = load i64, ptr %6, align 8, !tbaa !11
  %reass.sub = sub i64 %15, %.010
  %16 = add i64 %reass.sub, -2
  %17 = icmp ult i64 %14, %16
  br i1 %17, label %10, label %.loopexit, !llvm.loop !13

.loopexit:                                        ; preds = %10, %.preheader, %5
  ret void
}